; Function Attrs: null_pointer_is_valid sspstrong uwtable
define void @fvalue_free(ptr noundef %0) local_unnamed_addr #0 {
  %2 = load ptr, ptr %0, align 8
  %3 = getelementptr inbounds nuw i8, ptr %2, i64 24
  %4 = load ptr, ptr %3, align 8
  %.not.i = icmp eq ptr %4, null
  br i1 %.not.i, label %fvalue_cleanup.exit, label %5

5:                                                ; preds = %1
  tail call void %4(ptr noundef %0)
  br label %fvalue_cleanup.exit

fvalue_cleanup.exit:                              ; preds = %1, %5
  tail call void @g_slice_free1(i64 noundef 40, ptr noundef %0)
  ret void
}